target datalayout = "e-m:e-p270:32:32-p271:32:32-p272:64:64-i64:64-i128:128-f80:128-n8:16:32:64-S128"
target triple = "x86_64-pc-linux-gnu"

%"class.llvm::StringRef" = type { ptr, i64 }
%"class.llvm::SmallVectorBase" = type { ptr, i32, i32 }
%"class.llvm::FoldingSetBase::Node" = type { ptr }
%"class.clang::ento::BugReporterVisitor" = type { ptr, %"class.llvm::FoldingSetBase::Node" }
%"class.clang::ento::TrackConstraintBRVisitor" = type <{ %"class.clang::ento::BugReporterVisitor", %"class.llvm::SmallString", %"class.clang::ento::DefinedSVal", i8, i8, i8, [5 x i8] }>
%"class.llvm::SmallString" = type { %"class.llvm::SmallVector.924" }
%"class.llvm::SmallVector.924" = type { %"class.llvm::SmallVectorImpl.925", %"struct.llvm::SmallVectorStorage.929" }
%"class.llvm::SmallVectorImpl.925" = type { %"class.llvm::SmallVectorTemplateBase.926" }
%"class.llvm::SmallVectorTemplateBase.926" = type { %"class.llvm::SmallVectorTemplateCommon.927" }
%"class.llvm::SmallVectorTemplateCommon.927" = type { %"class.llvm::SmallVectorBase.928" }
%"class.llvm::SmallVectorBase.928" = type { ptr, i64, i64 }
%"struct.llvm::SmallVectorStorage.929" = type { [64 x i8] }
%"class.clang::ento::DefinedSVal" = type { %"class.clang::ento::DefinedOrUnknownSVal.base", [7 x i8] }
%"class.clang::ento::DefinedOrUnknownSVal.base" = type { %"class.clang::ento::SVal.base" }
%"class.clang::ento::SVal.base" = type <{ ptr, i8 }>
%"class.llvm::FoldingSetNodeID" = type { %"class.llvm::SmallVector.919" }
%"class.llvm::SmallVector.919" = type { %"class.llvm::SmallVectorImpl.920", %"struct.llvm::SmallVectorStorage.923" }
%"class.llvm::SmallVectorImpl.920" = type { %"class.llvm::SmallVectorTemplateBase.921" }
%"class.llvm::SmallVectorTemplateBase.921" = type { %"class.llvm::SmallVectorTemplateCommon.922" }
%"class.llvm::SmallVectorTemplateCommon.922" = type { %"class.llvm::SmallVectorBase" }
%"struct.llvm::SmallVectorStorage.923" = type { [128 x i8] }

@_ZZNK5clang4ento24TrackConstraintBRVisitor7ProfileERN4llvm16FoldingSetNodeIDEE3tag = internal global i32 0, align 4

; Function Attrs: mustprogress nounwind uwtable
define linkonce_odr hidden noundef ptr @_ZNK4llvm25SmallVectorTemplateCommonIjvE10getFirstElEv(ptr noundef nonnull align 8 dereferenceable(16) %0) #0 comdat align 2 {
  %2 = alloca ptr, align 8
  store ptr %0, ptr %2, align 8
  %3 = load ptr, ptr %2, align 8
  %4 = getelementptr inbounds i8, ptr %3, i64 16
  ret ptr %4
}

; Function Attrs: mustprogress nounwind uwtable
define linkonce_odr hidden void @_ZN4llvm25SmallVectorTemplateCommonIjvE8grow_podEmm(ptr noundef nonnull align 8 dereferenceable(16) %0, i64 noundef %1, i64 noundef %2) #0 comdat align 2 {
  %4 = alloca ptr, align 8
  %5 = alloca i64, align 8
  %6 = alloca i64, align 8
  store ptr %0, ptr %4, align 8
  store i64 %1, ptr %5, align 8
  store i64 %2, ptr %6, align 8
  %7 = load ptr, ptr %4, align 8
  %8 = call noundef ptr @_ZNK4llvm25SmallVectorTemplateCommonIjvE10getFirstElEv(ptr noundef nonnull align 8 dereferenceable(16) %7)
  %9 = load i64, ptr %5, align 8
  %10 = load i64, ptr %6, align 8
  call void @_ZN4llvm15SmallVectorBaseIjE8grow_podEPvmm(ptr noundef nonnull align 8 dereferenceable(16) %7, ptr noundef %8, i64 noundef %9, i64 noundef %10)
  ret void
}

; Function Attrs: mustprogress nounwind uwtable
define linkonce_odr hidden void @_ZN4llvm23SmallVectorTemplateBaseIjLb1EE4growEm(ptr noundef nonnull align 8 dereferenceable(16) %0, i64 noundef %1) #0 comdat align 2 {
  %3 = alloca ptr, align 8
  %4 = alloca i64, align 8
  store ptr %0, ptr %3, align 8
  store i64 %1, ptr %4, align 8
  %5 = load ptr, ptr %3, align 8
  %6 = load i64, ptr %4, align 8
  call void @_ZN4llvm25SmallVectorTemplateCommonIjvE8grow_podEmm(ptr noundef nonnull align 8 dereferenceable(16) %5, i64 noundef %6, i64 noundef 4)
  ret void
}

; Function Attrs: mustprogress nounwind uwtable
define linkonce_odr hidden noundef ptr @_ZN4llvm25SmallVectorTemplateCommonIjvE5beginEv(ptr noundef nonnull align 8 dereferenceable(16) %0) #0 comdat align 2 {
  %2 = alloca ptr, align 8
  store ptr %0, ptr %2, align 8
  %3 = load ptr, ptr %2, align 8
  %4 = getelementptr inbounds nuw %"class.llvm::SmallVectorBase", ptr %3, i32 0, i32 0
  %5 = load ptr, ptr %4, align 8
  ret ptr %5
}

; Function Attrs: mustprogress nounwind uwtable
define linkonce_odr hidden noundef ptr @_ZN4llvm25SmallVectorTemplateCommonIjvE32reserveForParamAndGetAddressImplINS_23SmallVectorTemplateBaseIjLb1EEEEEPKjPT_RS5_m(ptr noundef %0, ptr noundef nonnull align 4 dereferenceable(4) %1, i64 noundef %2) #0 comdat align 2 {
  %4 = alloca ptr, align 8
  %5 = alloca ptr, align 8
  %6 = alloca ptr, align 8
  %7 = alloca i64, align 8
  %8 = alloca i64, align 8
  %9 = alloca i8, align 1
  %10 = alloca i64, align 8
  store ptr %0, ptr %5, align 8
  store ptr %1, ptr %6, align 8
  store i64 %2, ptr %7, align 8
  %11 = load ptr, ptr %5, align 8
  %12 = call noundef i64 @_ZNK4llvm15SmallVectorBaseIjE4sizeEv(ptr noundef nonnull align 8 dereferenceable(16) %11)
  %13 = load i64, ptr %7, align 8
  %14 = add i64 %12, %13
  store i64 %14, ptr %8, align 8
  %15 = load i64, ptr %8, align 8
  %16 = load ptr, ptr %5, align 8
  %17 = call noundef i64 @_ZNK4llvm15SmallVectorBaseIjE8capacityEv(ptr noundef nonnull align 8 dereferenceable(16) %16)
  %18 = icmp ule i64 %15, %17
  br i1 %18, label %19, label %21

19:                                               ; preds = %3
  %20 = load ptr, ptr %6, align 8
  store ptr %20, ptr %4, align 8
  br label %35

21:                                               ; preds = %3
  store i8 0, ptr %9, align 1
  store i64 -1, ptr %10, align 8
  %22 = load ptr, ptr %5, align 8
  %23 = load i64, ptr %8, align 8
  call void @_ZN4llvm23SmallVectorTemplateBaseIjLb1EE4growEm(ptr noundef nonnull align 8 dereferenceable(16) %22, i64 noundef %23)
  %24 = load i8, ptr %9, align 1
  %25 = trunc i8 %24 to i1
  br i1 %25, label %26, label %31

26:                                               ; preds = %21
  %27 = load ptr, ptr %5, align 8
  %28 = call noundef ptr @_ZN4llvm25SmallVectorTemplateCommonIjvE5beginEv(ptr noundef nonnull align 8 dereferenceable(16) %27)
  %29 = load i64, ptr %10, align 8
  %30 = getelementptr inbounds i32, ptr %28, i64 %29
  br label %33

31:                                               ; preds = %21
  %32 = load ptr, ptr %6, align 8
  br label %33

33:                                               ; preds = %31, %26
  %34 = phi ptr [ %30, %26 ], [ %32, %31 ]
  store ptr %34, ptr %4, align 8
  br label %35

35:                                               ; preds = %33, %19
  %36 = load ptr, ptr %4, align 8
  ret ptr %36
}

; Function Attrs: mustprogress nounwind uwtable
define linkonce_odr hidden noundef ptr @_ZN4llvm25SmallVectorTemplateCommonIjvE3endEv(ptr noundef nonnull align 8 dereferenceable(16) %0) #0 comdat align 2 {
  %2 = alloca ptr, align 8
  store ptr %0, ptr %2, align 8
  %3 = load ptr, ptr %2, align 8
  %4 = call noundef ptr @_ZN4llvm25SmallVectorTemplateCommonIjvE5beginEv(ptr noundef nonnull align 8 dereferenceable(16) %3)
  %5 = call noundef i64 @_ZNK4llvm15SmallVectorBaseIjE4sizeEv(ptr noundef nonnull align 8 dereferenceable(16) %3)
  %6 = getelementptr inbounds i32, ptr %4, i64 %5
  ret ptr %6
}

; Function Attrs: mustprogress nounwind uwtable
define linkonce_odr hidden noundef ptr @_ZN4llvm23SmallVectorTemplateBaseIjLb1EE28reserveForParamAndGetAddressERjm(ptr noundef nonnull align 8 dereferenceable(16) %0, ptr noundef nonnull align 4 dereferenceable(4) %1, i64 noundef %2) #0 comdat align 2 {
  %4 = alloca ptr, align 8
  %5 = alloca ptr, align 8
  %6 = alloca i64, align 8
  store ptr %0, ptr %4, align 8
  store ptr %1, ptr %5, align 8
  store i64 %2, ptr %6, align 8
  %7 = load ptr, ptr %4, align 8
  %8 = load ptr, ptr %5, align 8
  %9 = load i64, ptr %6, align 8
  %10 = call noundef ptr @_ZN4llvm25SmallVectorTemplateCommonIjvE32reserveForParamAndGetAddressImplINS_23SmallVectorTemplateBaseIjLb1EEEEEPKjPT_RS5_m(ptr noundef %7, ptr noundef nonnull align 4 dereferenceable(4) %8, i64 noundef %9)
  ret ptr %10
}

; Function Attrs: mustprogress nounwind uwtable
define linkonce_odr hidden noundef ptr @_ZNK4llvm25SmallVectorTemplateCommonIcvE5beginEv(ptr noundef nonnull align 8 dereferenceable(24) %0) #0 comdat align 2 {
  %2 = alloca ptr, align 8
  store ptr %0, ptr %2, align 8
  %3 = load ptr, ptr %2, align 8
  %4 = getelementptr inbounds nuw %"class.llvm::SmallVectorBase.928", ptr %3, i32 0, i32 0
  %5 = load ptr, ptr %4, align 8
  ret ptr %5
}

; Function Attrs: mustprogress nounwind uwtable
define linkonce_odr hidden void @_ZN4llvm23SmallVectorTemplateBaseIjLb1EE9push_backEj(ptr noundef nonnull align 8 dereferenceable(16) %0, i32 noundef %1) #0 comdat align 2 {
  %3 = alloca ptr, align 8
  %4 = alloca i32, align 4
  %5 = alloca ptr, align 8
  store ptr %0, ptr %3, align 8
  store i32 %1, ptr %4, align 4
  %6 = load ptr, ptr %3, align 8
  %7 = call noundef ptr @_ZN4llvm23SmallVectorTemplateBaseIjLb1EE28reserveForParamAndGetAddressERjm(ptr noundef nonnull align 8 dereferenceable(16) %6, ptr noundef nonnull align 4 dereferenceable(4) %4, i64 noundef 1)
  store ptr %7, ptr %5, align 8
  %8 = call noundef ptr @_ZN4llvm25SmallVectorTemplateCommonIjvE3endEv(ptr noundef nonnull align 8 dereferenceable(16) %6)
  %9 = load ptr, ptr %5, align 8
  call void @llvm.memcpy.p0.p0.i64(ptr align 1 %8, ptr align 4 %9, i64 4, i1 false)
  %10 = call noundef i64 @_ZNK4llvm15SmallVectorBaseIjE4sizeEv(ptr noundef nonnull align 8 dereferenceable(16) %6)
  %11 = add i64 %10, 1
  call void @_ZN4llvm15SmallVectorBaseIjE8set_sizeEm(ptr noundef nonnull align 8 dereferenceable(16) %6, i64 noundef %11)
  ret void
}

; Function Attrs: mustprogress nounwind uwtable
define linkonce_odr hidden void @_ZN4llvm9StringRefC2EPKcm(ptr noundef nonnull align 8 dereferenceable(16) %0, ptr noundef %1, i64 noundef %2) unnamed_addr #0 comdat align 2 {
  %4 = alloca ptr, align 8
  %5 = alloca ptr, align 8
  %6 = alloca i64, align 8
  store ptr %0, ptr %4, align 8
  store ptr %1, ptr %5, align 8
  store i64 %2, ptr %6, align 8
  %7 = load ptr, ptr %4, align 8
  %8 = getelementptr inbounds nuw %"class.llvm::StringRef", ptr %7, i32 0, i32 0
  %9 = load ptr, ptr %5, align 8
  store ptr %9, ptr %8, align 8
  %10 = getelementptr inbounds nuw %"class.llvm::StringRef", ptr %7, i32 0, i32 1
  %11 = load i64, ptr %6, align 8
  store i64 %11, ptr %10, align 8
  ret void
}

; Function Attrs: mustprogress nounwind uwtable
define linkonce_odr hidden noundef ptr @_ZNK4llvm25SmallVectorTemplateCommonIcvE4dataEv(ptr noundef nonnull align 8 dereferenceable(24) %0) #0 comdat align 2 {
  %2 = alloca ptr, align 8
  store ptr %0, ptr %2, align 8
  %3 = load ptr, ptr %2, align 8
  %4 = call noundef ptr @_ZNK4llvm25SmallVectorTemplateCommonIcvE5beginEv(ptr noundef nonnull align 8 dereferenceable(24) %3)
  ret ptr %4
}

; Function Attrs: mustprogress nounwind uwtable
define linkonce_odr hidden void @_ZN4llvm22DefaultFoldingSetTraitIN5clang4ento11DefinedSValEE7ProfileERKS3_RNS_16FoldingSetNodeIDE(ptr noundef nonnull align 8 dereferenceable(9) %0, ptr noundef nonnull align 8 dereferenceable(144) %1) #0 comdat align 2 {
  %3 = alloca ptr, align 8
  %4 = alloca ptr, align 8
  store ptr %0, ptr %3, align 8
  store ptr %1, ptr %4, align 8
  %5 = load ptr, ptr %3, align 8
  %6 = load ptr, ptr %4, align 8
  call void @_ZNK5clang4ento4SVal7ProfileERN4llvm16FoldingSetNodeIDE(ptr noundef nonnull align 8 dereferenceable(9) %5, ptr noundef nonnull align 8 dereferenceable(144) %6)
  ret void
}

; Function Attrs: mustprogress nounwind uwtable
define linkonce_odr hidden void @_ZN4llvm16FoldingSetNodeID10AddIntegerEj(ptr noundef nonnull align 8 dereferenceable(144) %0, i32 noundef %1) #0 comdat align 2 {
  %3 = alloca ptr, align 8
  %4 = alloca i32, align 4
  store ptr %0, ptr %3, align 8
  store i32 %1, ptr %4, align 4
  %5 = load ptr, ptr %3, align 8
  %6 = getelementptr inbounds nuw %"class.llvm::FoldingSetNodeID", ptr %5, i32 0, i32 0
  %7 = load i32, ptr %4, align 4
  call void @_ZN4llvm23SmallVectorTemplateBaseIjLb1EE9push_backEj(ptr noundef nonnull align 8 dereferenceable(16) %6, i32 noundef %7)
  ret void
}

; Function Attrs: mustprogress nounwind uwtable
define linkonce_odr hidden { ptr, i64 } @_ZNK4llvm11SmallStringILj64EE3strEv(ptr noundef nonnull align 8 dereferenceable(88) %0) #0 comdat align 2 {
  %2 = alloca %"class.llvm::StringRef", align 8
  %3 = alloca ptr, align 8
  store ptr %0, ptr %3, align 8
  %4 = load ptr, ptr %3, align 8
  %5 = call noundef ptr @_ZNK4llvm25SmallVectorTemplateCommonIcvE4dataEv(ptr noundef nonnull align 8 dereferenceable(24) %4)
  %6 = call noundef i64 @_ZNK4llvm15SmallVectorBaseImE4sizeEv(ptr noundef nonnull align 8 dereferenceable(24) %4)
  call void @_ZN4llvm9StringRefC2EPKcm(ptr noundef nonnull align 8 dereferenceable(16) %2, ptr noundef %5, i64 noundef %6)
  %7 = load { ptr, i64 }, ptr %2, align 8
  ret { ptr, i64 } %7
}

; Function Attrs: mustprogress nounwind uwtable
define linkonce_odr hidden void @_ZN4llvm16FoldingSetNodeID10AddIntegerEm(ptr noundef nonnull align 8 dereferenceable(144) %0, i64 noundef %1) #0 comdat align 2 {
  %3 = alloca ptr, align 8
  %4 = alloca i64, align 8
  store ptr %0, ptr %3, align 8
  store i64 %1, ptr %4, align 8
  %5 = load ptr, ptr %3, align 8
  %6 = load i64, ptr %4, align 8
  call void @_ZN4llvm16FoldingSetNodeID10AddIntegerEy(ptr noundef nonnull align 8 dereferenceable(144) %5, i64 noundef %6)
  ret void
}

; Function Attrs: mustprogress nounwind uwtable
define linkonce_odr hidden void @_ZN4llvm16FoldingSetNodeID3AddIN5clang4ento11DefinedSValEEEvRKT_(ptr noundef nonnull align 8 dereferenceable(144) %0, ptr noundef nonnull align 8 dereferenceable(9) %1) #0 comdat align 2 {
  %3 = alloca ptr, align 8
  %4 = alloca ptr, align 8
  store ptr %0, ptr %3, align 8
  store ptr %1, ptr %4, align 8
  %5 = load ptr, ptr %3, align 8
  %6 = load ptr, ptr %4, align 8
  call void @_ZN4llvm22DefaultFoldingSetTraitIN5clang4ento11DefinedSValEE7ProfileERKS3_RNS_16FoldingSetNodeIDE(ptr noundef nonnull align 8 dereferenceable(9) %6, ptr noundef nonnull align 8 dereferenceable(144) %5)
  ret void
}

; Function Attrs: mustprogress nounwind uwtable
define linkonce_odr hidden void @_ZN4llvm16FoldingSetNodeID10AddBooleanEb(ptr noundef nonnull align 8 dereferenceable(144) %0, i1 noundef zeroext %1) #0 comdat align 2 {
  %3 = alloca ptr, align 8
  %4 = alloca i8, align 1
  store ptr %0, ptr %3, align 8
  %5 = zext i1 %1 to i8
  store i8 %5, ptr %4, align 1
  %6 = load ptr, ptr %3, align 8
  %7 = load i8, ptr %4, align 1
  %8 = trunc i8 %7 to i1
  %9 = select i1 %8, i32 1, i32 0
  call void @_ZN4llvm16FoldingSetNodeID10AddIntegerEj(ptr noundef nonnull align 8 dereferenceable(144) %6, i32 noundef %9)
  ret void
}

; Function Attrs: mustprogress nounwind uwtable
define linkonce_odr hidden { ptr, i64 } @_ZNK4llvm11SmallStringILj64EEcvNS_9StringRefEEv(ptr noundef nonnull align 8 dereferenceable(88) %0) #0 comdat align 2 {
  %2 = alloca %"class.llvm::StringRef", align 8
  %3 = alloca ptr, align 8
  store ptr %0, ptr %3, align 8
  %4 = load ptr, ptr %3, align 8
  %5 = call { ptr, i64 } @_ZNK4llvm11SmallStringILj64EE3strEv(ptr noundef nonnull align 8 dereferenceable(88) %4)
  %6 = getelementptr inbounds nuw { ptr, i64 }, ptr %2, i32 0, i32 0
  %7 = extractvalue { ptr, i64 } %5, 0
  store ptr %7, ptr %6, align 8
  %8 = getelementptr inbounds nuw { ptr, i64 }, ptr %2, i32 0, i32 1
  %9 = extractvalue { ptr, i64 } %5, 1
  store i64 %9, ptr %8, align 8
  %10 = load { ptr, i64 }, ptr %2, align 8
  ret { ptr, i64 } %10
}

; Function Attrs: mustprogress nounwind uwtable
define linkonce_odr hidden void @_ZN4llvm16FoldingSetNodeID10AddPointerEPKv(ptr noundef nonnull align 8 dereferenceable(144) %0, ptr noundef %1) #0 comdat align 2 {
  %3 = alloca ptr, align 8
  %4 = alloca ptr, align 8
  store ptr %0, ptr %3, align 8
  store ptr %1, ptr %4, align 8
  %5 = load ptr, ptr %3, align 8
  %6 = load ptr, ptr %4, align 8
  %7 = ptrtoint ptr %6 to i64
  call void @_ZN4llvm16FoldingSetNodeID10AddIntegerEm(ptr noundef nonnull align 8 dereferenceable(144) %5, i64 noundef %7)
  ret void
}

; Function Attrs: mustprogress nounwind uwtable
define dso_local void @_ZNK5clang4ento24TrackConstraintBRVisitor7ProfileERN4llvm16FoldingSetNodeIDE(ptr noundef nonnull align 8 dereferenceable(128) %0, ptr noundef nonnull align 8 dereferenceable(144) %1) unnamed_addr #0 align 2 {
  %3 = alloca ptr, align 8
  %4 = alloca ptr, align 8
  %5 = alloca %"class.llvm::StringRef", align 8
  store ptr %0, ptr %3, align 8
  store ptr %1, ptr %4, align 8
  %6 = load ptr, ptr %3, align 8
  %7 = load ptr, ptr %4, align 8
  call void @_ZN4llvm16FoldingSetNodeID10AddPointerEPKv(ptr noundef nonnull align 8 dereferenceable(144) %7, ptr noundef @_ZZNK5clang4ento24TrackConstraintBRVisitor7ProfileERN4llvm16FoldingSetNodeIDEE3tag)
  %8 = load ptr, ptr %4, align 8
  %9 = getelementptr inbounds nuw %"class.clang::ento::TrackConstraintBRVisitor", ptr %6, i32 0, i32 1
  %10 = call { ptr, i64 } @_ZNK4llvm11SmallStringILj64EEcvNS_9StringRefEEv(ptr noundef nonnull align 8 dereferenceable(88) %9)
  %11 = getelementptr inbounds nuw { ptr, i64 }, ptr %5, i32 0, i32 0
  %12 = extractvalue { ptr, i64 } %10, 0
  store ptr %12, ptr %11, align 8
  %13 = getelementptr inbounds nuw { ptr, i64 }, ptr %5, i32 0, i32 1
  %14 = extractvalue { ptr, i64 } %10, 1
  store i64 %14, ptr %13, align 8
  %15 = getelementptr inbounds nuw { ptr, i64 }, ptr %5, i32 0, i32 0
  %16 = load ptr, ptr %15, align 8
  %17 = getelementptr inbounds nuw { ptr, i64 }, ptr %5, i32 0, i32 1
  %18 = load i64, ptr %17, align 8
  call void @_ZN4llvm16FoldingSetNodeID9AddStringENS_9StringRefE(ptr noundef nonnull align 8 dereferenceable(144) %8, ptr %16, i64 %18)
  %19 = load ptr, ptr %4, align 8
  %20 = getelementptr inbounds nuw %"class.clang::ento::TrackConstraintBRVisitor", ptr %6, i32 0, i32 3
  %21 = load i8, ptr %20, align 8
  %22 = trunc i8 %21 to i1
  call void @_ZN4llvm16FoldingSetNodeID10AddBooleanEb(ptr noundef nonnull align 8 dereferenceable(144) %19, i1 noundef zeroext %22)
  %23 = load ptr, ptr %4, align 8
  %24 = getelementptr inbounds nuw %"class.clang::ento::TrackConstraintBRVisitor", ptr %6, i32 0, i32 2
  call void @_ZN4llvm16FoldingSetNodeID3AddIN5clang4ento11DefinedSValEEEvRKT_(ptr noundef nonnull align 8 dereferenceable(144) %23, ptr noundef nonnull align 8 dereferenceable(9) %24)
  ret void
}