; Function Attrs: mustprogress nounwind uwtable
define dso_local void @_ZNK5clang4ento24TrackConstraintBRVisitor7ProfileERN4llvm16FoldingSetNodeIDE(ptr noundef nonnull align 8 dereferenceable(128) %0, ptr noundef nonnull align 8 dereferenceable(144) %1) unnamed_addr #0 align 2 {
  tail call void @_ZN4llvm16FoldingSetNodeID10AddIntegerEy(ptr noundef nonnull align 8 dereferenceable(144) %1, i64 noundef ptrtoint (ptr @_ZZNK5clang4ento24TrackConstraintBRVisitor7ProfileERN4llvm16FoldingSetNodeIDEE3tag to i64))
  %3 = getelementptr inbounds nuw i8, ptr %0, i64 16
  %4 = load ptr, ptr %3, align 8
  %5 = tail call noundef i64 @_ZNK4llvm15SmallVectorBaseImE4sizeEv(ptr noundef nonnull align 8 dereferenceable(88) %3) #22
  tail call void @_ZN4llvm16FoldingSetNodeID9AddStringENS_9StringRefE(ptr noundef nonnull align 8 dereferenceable(144) %1, ptr %4, i64 %5) #22
  %6 = getelementptr inbounds nuw i8, ptr %0, i64 120
  %7 = load i8, ptr %6, align 8
  %8 = tail call noundef i64 @_ZNK4llvm15SmallVectorBaseIjE4sizeEv(ptr noundef nonnull align 8 dereferenceable(144) %1) #22
  %9 = add i64 %8, 1
  %10 = tail call noundef i64 @_ZNK4llvm15SmallVectorBaseIjE8capacityEv(ptr noundef nonnull align 8 dereferenceable(144) %1) #22
  %.not.i.i.i.i.i = icmp ugt i64 %9, %10
  br i1 %.not.i.i.i.i.i, label %11, label %_ZN4llvm16FoldingSetNodeID10AddBooleanEb.exit

11:                                               ; preds = %2
  %12 = getelementptr inbounds nuw i8, ptr %1, i64 16
  tail call void @_ZN4llvm15SmallVectorBaseIjE8grow_podEPvmm(ptr noundef nonnull align 8 dereferenceable(144) %1, ptr noundef nonnull %12, i64 noundef %9, i64 noundef 4) #22
  br label %_ZN4llvm16FoldingSetNodeID10AddBooleanEb.exit

_ZN4llvm16FoldingSetNodeID10AddBooleanEb.exit:    ; preds = %2, %11
  %13 = and i8 %7, 1
  %14 = zext nneg i8 %13 to i32
  %15 = load ptr, ptr %1, align 8
  %16 = tail call noundef i64 @_ZNK4llvm15SmallVectorBaseIjE4sizeEv(ptr noundef nonnull align 8 dereferenceable(144) %1) #22
  %17 = getelementptr inbounds i32, ptr %15, i64 %16
  store i32 %14, ptr %17, align 1
  %18 = tail call noundef i64 @_ZNK4llvm15SmallVectorBaseIjE4sizeEv(ptr noundef nonnull align 8 dereferenceable(144) %1) #22
  %19 = add i64 %18, 1
  tail call void @_ZN4llvm15SmallVectorBaseIjE8set_sizeEm(ptr noundef nonnull align 8 dereferenceable(144) %1, i64 noundef %19) #22
  %20 = getelementptr inbounds nuw i8, ptr %0, i64 104
  tail call void @_ZNK5clang4ento4SVal7ProfileERN4llvm16FoldingSetNodeIDE(ptr noundef nonnull align 8 dereferenceable(9) %20, ptr noundef nonnull align 8 dereferenceable(144) %1)
  ret void
}